target datalayout = "e-m:e-p270:32:32-p271:32:32-p272:64:64-i64:64-i128:128-f80:128-n8:16:32:64-S128"
target triple = "x86_64-pc-linux-gnu"

@hf_rsl_ie_id = internal global i32 0, align 4
@hf_rsl_ie_length = internal global i32 0, align 4
@hf_rsl_cause = internal global i32 0, align 4
@hf_rsl_extension_bit = internal global i32 0, align 4
@ett_ie_rlm_cause = internal global i32 0, align 4
@.str.759 = private unnamed_addr constant [14 x i8] c"RLM Cause IE \00", align 1

; Function Attrs: null_pointer_is_valid sspstrong uwtable
define internal i32 @dissect_rsl_ie_rlm_cause(ptr noundef %0, ptr noundef %1, ptr noundef %2, i32 noundef %3, i1 noundef zeroext %4) #0 {
  %6 = alloca i32, align 4
  %7 = alloca ptr, align 8
  %8 = alloca ptr, align 8
  %9 = alloca ptr, align 8
  %10 = alloca i32, align 4
  %11 = alloca i8, align 1
  %12 = alloca ptr, align 8
  %13 = alloca ptr, align 8
  %14 = alloca i32, align 4
  %15 = alloca i8, align 1
  %16 = alloca i32, align 4
  store ptr %0, ptr %7, align 8
  store ptr %1, ptr %8, align 8
  store ptr %2, ptr %9, align 8
  store i32 %3, ptr %10, align 4
  %17 = zext i1 %4 to i8
  store i8 %17, ptr %11, align 1
  call void @llvm.lifetime.start.p0(i64 8, ptr %12) #6
  call void @llvm.lifetime.start.p0(i64 8, ptr %13) #6
  call void @llvm.lifetime.start.p0(i64 4, ptr %14) #6
  call void @llvm.lifetime.start.p0(i64 1, ptr %15) #6
  %18 = load i8, ptr %11, align 1, !range !6, !noundef !7
  %19 = trunc i8 %18 to i1
  %20 = zext i1 %19 to i32
  %21 = icmp eq i32 %20, 0
  br i1 %21, label %22, label %32

22:                                               ; preds = %5
  %23 = load ptr, ptr %7, align 8
  %24 = load i32, ptr %10, align 4
  %25 = call zeroext i8 @tvb_get_uint8(ptr noundef %23, i32 noundef %24)
  store i8 %25, ptr %15, align 1
  %26 = load i8, ptr %15, align 1
  %27 = zext i8 %26 to i32
  %28 = icmp ne i32 %27, 22
  br i1 %28, label %29, label %31

29:                                               ; preds = %22
  %30 = load i32, ptr %10, align 4
  store i32 %30, ptr %6, align 4
  store i32 1, ptr %16, align 4
  br label %77

31:                                               ; preds = %22
  br label %32

32:                                               ; preds = %31, %5
  %33 = load ptr, ptr %9, align 8
  %34 = load ptr, ptr %7, align 8
  %35 = load i32, ptr %10, align 4
  %36 = load i32, ptr @ett_ie_rlm_cause, align 4
  %37 = call ptr @proto_tree_add_subtree(ptr noundef %33, ptr noundef %34, i32 noundef %35, i32 noundef 0, i32 noundef %36, ptr noundef %12, ptr noundef @.str.759)
  store ptr %37, ptr %13, align 8
  %38 = load ptr, ptr %13, align 8
  %39 = load i32, ptr @hf_rsl_ie_id, align 4
  %40 = load ptr, ptr %7, align 8
  %41 = load i32, ptr %10, align 4
  %42 = call ptr @proto_tree_add_item(ptr noundef %38, i32 noundef %39, ptr noundef %40, i32 noundef %41, i32 noundef 1, i32 noundef 0)
  %43 = load i32, ptr %10, align 4
  %44 = add i32 %43, 1
  store i32 %44, ptr %10, align 4
  %45 = load ptr, ptr %7, align 8
  %46 = load i32, ptr %10, align 4
  %47 = call zeroext i8 @tvb_get_uint8(ptr noundef %45, i32 noundef %46)
  %48 = zext i8 %47 to i32
  store i32 %48, ptr %14, align 4
  %49 = load ptr, ptr %12, align 8
  %50 = load i32, ptr %14, align 4
  %51 = add i32 %50, 2
  call void @proto_item_set_len(ptr noundef %49, i32 noundef %51)
  %52 = load ptr, ptr %13, align 8
  %53 = load i32, ptr @hf_rsl_ie_length, align 4
  %54 = load ptr, ptr %7, align 8
  %55 = load i32, ptr %10, align 4
  %56 = call ptr @proto_tree_add_item(ptr noundef %52, i32 noundef %53, ptr noundef %54, i32 noundef %55, i32 noundef 1, i32 noundef 0)
  %57 = load i32, ptr %10, align 4
  %58 = add i32 %57, 1
  store i32 %58, ptr %10, align 4
  %59 = load i32, ptr %14, align 4
  %60 = icmp eq i32 %59, 0
  br i1 %60, label %61, label %63

61:                                               ; preds = %32
  %62 = load i32, ptr %10, align 4
  store i32 %62, ptr %6, align 4
  store i32 1, ptr %16, align 4
  br label %77

63:                                               ; preds = %32
  %64 = load ptr, ptr %13, align 8
  %65 = load i32, ptr @hf_rsl_extension_bit, align 4
  %66 = load ptr, ptr %7, align 8
  %67 = load i32, ptr %10, align 4
  %68 = call ptr @proto_tree_add_item(ptr noundef %64, i32 noundef %65, ptr noundef %66, i32 noundef %67, i32 noundef 1, i32 noundef 0)
  %69 = load ptr, ptr %13, align 8
  %70 = load i32, ptr @hf_rsl_cause, align 4
  %71 = load ptr, ptr %7, align 8
  %72 = load i32, ptr %10, align 4
  %73 = call ptr @proto_tree_add_item(ptr noundef %69, i32 noundef %70, ptr noundef %71, i32 noundef %72, i32 noundef 1, i32 noundef 0)
  %74 = load i32, ptr %10, align 4
  %75 = add i32 %74, 1
  store i32 %75, ptr %10, align 4
  %76 = load i32, ptr %10, align 4
  store i32 %76, ptr %6, align 4
  store i32 1, ptr %16, align 4
  br label %77

77:                                               ; preds = %63, %61, %29
  call void @llvm.lifetime.end.p0(i64 1, ptr %15) #6
  call void @llvm.lifetime.end.p0(i64 4, ptr %14) #6
  call void @llvm.lifetime.end.p0(i64 8, ptr %13) #6
  call void @llvm.lifetime.end.p0(i64 8, ptr %12) #6
  %78 = load i32, ptr %6, align 4
  ret i32 %78
}